target datalayout = "e-m:e-p270:32:32-p271:32:32-p272:64:64-i64:64-i128:128-f80:128-n8:16:32:64-S128"
target triple = "x86_64-pc-linux-gnu"

@.str.1 = private unnamed_addr constant [32 x i8] c"../openssl/crypto/pem/pem_lib.c\00", align 1
@__func__.load_iv = private unnamed_addr constant [8 x i8] c"load_iv\00", align 1

; Function Attrs: nounwind uwtable
define internal i32 @load_iv(ptr noundef %0, ptr noundef %1, i32 noundef %2) #0 {
  %4 = alloca i32, align 4
  %5 = alloca ptr, align 8
  %6 = alloca ptr, align 8
  %7 = alloca i32, align 4
  %8 = alloca i32, align 4
  %9 = alloca i32, align 4
  %10 = alloca ptr, align 8
  %11 = alloca i32, align 4
  store ptr %0, ptr %5, align 8, !tbaa !20
  store ptr %1, ptr %6, align 8, !tbaa !3
  store i32 %2, ptr %7, align 4, !tbaa !8
  call void @llvm.lifetime.start.p0(i64 4, ptr %8) #8
  call void @llvm.lifetime.start.p0(i64 4, ptr %9) #8
  call void @llvm.lifetime.start.p0(i64 8, ptr %10) #8
  %12 = load ptr, ptr %5, align 8, !tbaa !20
  %13 = load ptr, ptr %12, align 8, !tbaa !3
  store ptr %13, ptr %10, align 8, !tbaa !3
  store i32 0, ptr %9, align 4, !tbaa !8
  br label %14

14:                                               ; preds = %23, %3
  %15 = load i32, ptr %9, align 4, !tbaa !8
  %16 = load i32, ptr %7, align 4, !tbaa !8
  %17 = icmp slt i32 %15, %16
  br i1 %17, label %18, label %26

18:                                               ; preds = %14
  %19 = load ptr, ptr %6, align 8, !tbaa !3
  %20 = load i32, ptr %9, align 4, !tbaa !8
  %21 = sext i32 %20 to i64
  %22 = getelementptr inbounds i8, ptr %19, i64 %21
  store i8 0, ptr %22, align 1, !tbaa !13
  br label %23

23:                                               ; preds = %18
  %24 = load i32, ptr %9, align 4, !tbaa !8
  %25 = add nsw i32 %24, 1
  store i32 %25, ptr %9, align 4, !tbaa !8
  br label %14, !llvm.loop !33

26:                                               ; preds = %14
  %27 = load i32, ptr %7, align 4, !tbaa !8
  %28 = mul nsw i32 %27, 2
  store i32 %28, ptr %7, align 4, !tbaa !8
  store i32 0, ptr %9, align 4, !tbaa !8
  br label %29

29:                                               ; preds = %62, %26
  %30 = load i32, ptr %9, align 4, !tbaa !8
  %31 = load i32, ptr %7, align 4, !tbaa !8
  %32 = icmp slt i32 %30, %31
  br i1 %32, label %33, label %65

33:                                               ; preds = %29
  %34 = load ptr, ptr %10, align 8, !tbaa !3
  %35 = load i8, ptr %34, align 1, !tbaa !13
  %36 = call i32 @OPENSSL_hexchar2int(i8 noundef zeroext %35)
  store i32 %36, ptr %8, align 4, !tbaa !8
  %37 = load i32, ptr %8, align 4, !tbaa !8
  %38 = icmp slt i32 %37, 0
  br i1 %38, label %39, label %40

39:                                               ; preds = %33
  call void @ERR_new()
  call void @ERR_set_debug(ptr noundef @.str.1, i32 noundef 605, ptr noundef @__func__.load_iv)
  call void (i32, i32, ptr, ...) @ERR_set_error(i32 noundef 9, i32 noundef 103, ptr noundef null)
  store i32 0, ptr %4, align 4
  store i32 1, ptr %11, align 4
  br label %68

40:                                               ; preds = %33
  %41 = load ptr, ptr %10, align 8, !tbaa !3
  %42 = getelementptr inbounds nuw i8, ptr %41, i32 1
  store ptr %42, ptr %10, align 8, !tbaa !3
  %43 = load i32, ptr %8, align 4, !tbaa !8
  %44 = load i32, ptr %9, align 4, !tbaa !8
  %45 = and i32 %44, 1
  %46 = icmp ne i32 %45, 0
  %47 = xor i1 %46, true
  %48 = zext i1 %47 to i32
  %49 = mul nsw i32 %48, 4
  %50 = sext i32 %49 to i64
  %51 = trunc i64 %50 to i32
  %52 = shl i32 %43, %51
  %53 = load ptr, ptr %6, align 8, !tbaa !3
  %54 = load i32, ptr %9, align 4, !tbaa !8
  %55 = sdiv i32 %54, 2
  %56 = sext i32 %55 to i64
  %57 = getelementptr inbounds i8, ptr %53, i64 %56
  %58 = load i8, ptr %57, align 1, !tbaa !13
  %59 = zext i8 %58 to i32
  %60 = or i32 %59, %52
  %61 = trunc i32 %60 to i8
  store i8 %61, ptr %57, align 1, !tbaa !13
  br label %62

62:                                               ; preds = %40
  %63 = load i32, ptr %9, align 4, !tbaa !8
  %64 = add nsw i32 %63, 1
  store i32 %64, ptr %9, align 4, !tbaa !8
  br label %29, !llvm.loop !34

65:                                               ; preds = %29
  %66 = load ptr, ptr %10, align 8, !tbaa !3
  %67 = load ptr, ptr %5, align 8, !tbaa !20
  store ptr %66, ptr %67, align 8, !tbaa !3
  store i32 1, ptr %4, align 4
  store i32 1, ptr %11, align 4
  br label %68

68:                                               ; preds = %65, %39
  call void @llvm.lifetime.end.p0(i64 8, ptr %10) #8
  call void @llvm.lifetime.end.p0(i64 4, ptr %9) #8
  call void @llvm.lifetime.end.p0(i64 4, ptr %8) #8
  %69 = load i32, ptr %4, align 4
  ret i32 %69
}