; Function Attrs: nounwind uwtable
define internal fastcc range(i32 0, 2) i32 @load_iv(ptr noundef nonnull captures(none) %0, ptr noundef captures(none) %1, i32 noundef %2) unnamed_addr #0 {
  %4 = load ptr, ptr %0, align 8, !tbaa !8
  %5 = icmp sgt i32 %2, 0
  br i1 %5, label %.lr.ph28.preheader, label %._crit_edge29

.lr.ph28.preheader:                               ; preds = %3
  %6 = zext nneg i32 %2 to i64
  tail call void @llvm.memset.p0.i64(ptr align 1 %1, i8 0, i64 %6, i1 false), !tbaa !3
  %7 = shl nuw i32 %2, 1
  %smax = tail call i32 @llvm.smax.i32(i32 %7, i32 1)
  br label %.lr.ph28

.lr.ph28:                                         ; preds = %.lr.ph28.preheader, %12
  %.026 = phi ptr [ %13, %12 ], [ %4, %.lr.ph28.preheader ]
  %.125 = phi i32 [ %24, %12 ], [ 0, %.lr.ph28.preheader ]
  %8 = load i8, ptr %.026, align 1, !tbaa !3
  %9 = tail call i32 @OPENSSL_hexchar2int(i8 noundef zeroext %8) #10
  %10 = icmp slt i32 %9, 0
  br i1 %10, label %11, label %12

11:                                               ; preds = %.lr.ph28
  tail call void @ERR_new() #10
  tail call void @ERR_set_debug(ptr noundef nonnull @.str.1, i32 noundef 605, ptr noundef nonnull @__func__.load_iv) #10
  tail call void (i32, i32, ptr, ...) @ERR_set_error(i32 noundef 9, i32 noundef 103, ptr noundef null) #10
  br label %25

12:                                               ; preds = %.lr.ph28
  %13 = getelementptr inbounds nuw i8, ptr %.026, i64 1
  %14 = shl i32 %.125, 2
  %15 = and i32 %14, 4
  %16 = xor i32 %15, 4
  %17 = shl i32 %9, %16
  %18 = lshr i32 %.125, 1
  %19 = zext nneg i32 %18 to i64
  %20 = getelementptr inbounds nuw i8, ptr %1, i64 %19
  %21 = load i8, ptr %20, align 1, !tbaa !3
  %22 = trunc i32 %17 to i8
  %23 = or i8 %21, %22
  store i8 %23, ptr %20, align 1, !tbaa !3
  %24 = add nuw nsw i32 %.125, 1
  %exitcond.not = icmp eq i32 %24, %smax
  br i1 %exitcond.not, label %._crit_edge29, label %.lr.ph28, !llvm.loop !24

._crit_edge29:                                    ; preds = %12, %3
  %.0.lcssa = phi ptr [ %4, %3 ], [ %13, %12 ]
  store ptr %.0.lcssa, ptr %0, align 8, !tbaa !8
  br label %25

25:                                               ; preds = %._crit_edge29, %11
  %.020 = phi i32 [ 0, %11 ], [ 1, %._crit_edge29 ]
  ret i32 %.020
}